target datalayout = "e-m:e-p270:32:32-p271:32:32-p272:64:64-i64:64-i128:128-f80:128-n8:16:32:64-S128"
target triple = "x86_64-unknown-linux-gnu"

%"struct.facebook::velox::type::Parser::by_kind" = type { i32 }
%"class.facebook::velox::type::Parser::context" = type { ptr, ptr }

; Function Attrs: mustprogress nounwind uwtable
define noundef i32 @_ZNK8facebook5velox4type6Parser7by_kind4kindEv(ptr noundef nonnull align 4 dereferenceable(4) %this) #4 align 2 {
entry:
  %this.addr = alloca ptr, align 8
  store ptr %this, ptr %this.addr, align 8
  %this1 = load ptr, ptr %this.addr, align 8
  %kind_ = getelementptr inbounds %"struct.facebook::velox::type::Parser::by_kind", ptr %this1, i32 0, i32 0
  %0 = load i32, ptr %kind_, align 4
  ret i32 %0
}

; Function Attrs: mustprogress nounwind uwtable
define linkonce_odr noundef i32 @_ZNK8facebook5velox4type6Parser7context5tokenEv(ptr noundef nonnull align 8 dereferenceable(16) %this) #4 comdat align 2 {
entry:
  %this.addr = alloca ptr, align 8
  store ptr %this, ptr %this.addr, align 8
  %this1 = load ptr, ptr %this.addr, align 8
  %yyla_ = getelementptr inbounds %"class.facebook::velox::type::Parser::context", ptr %this1, i32 0, i32 1
  %0 = load ptr, ptr %yyla_, align 8
  %call = call noundef i32 @_ZNK8facebook5velox4type6Parser7by_kind4kindEv(ptr noundef nonnull align 4 dereferenceable(4) %0) #3
  ret i32 %call
}

; Function Attrs: mustprogress nounwind uwtable
define linkonce_odr noundef zeroext i1 @_ZNK8facebook5velox4type6Parser12basic_symbolINS2_7by_kindEE5emptyEv(ptr noundef nonnull align 16 dereferenceable(64) %this) #4 comdat align 2 {
entry:
  %this.addr = alloca ptr, align 8
  store ptr %this, ptr %this.addr, align 8
  %this1 = load ptr, ptr %this.addr, align 8
  %call = call noundef i32 @_ZNK8facebook5velox4type6Parser7by_kind4kindEv(ptr noundef nonnull align 4 dereferenceable(4) %this1) #3
  %cmp = icmp eq i32 %call, -2
  ret i1 %cmp
}

; Function Attrs: mustprogress nounwind uwtable
define linkonce_odr noundef nonnull align 16 dereferenceable(64) ptr @_ZNK8facebook5velox4type6Parser7context9lookaheadEv(ptr noundef nonnull align 8 dereferenceable(16) %this) #4 comdat align 2 {
entry:
  %this.addr = alloca ptr, align 8
  store ptr %this, ptr %this.addr, align 8
  %this1 = load ptr, ptr %this.addr, align 8
  %yyla_ = getelementptr inbounds %"class.facebook::velox::type::Parser::context", ptr %this1, i32 0, i32 1
  %0 = load ptr, ptr %yyla_, align 8
  ret ptr %0
}

; Function Attrs: mustprogress uwtable
define noundef i32 @_ZNK8facebook5velox4type6Parser26yy_syntax_error_arguments_ERKNS2_7contextEPNS2_11symbol_kind16symbol_kind_typeEi(ptr noundef nonnull align 8 dereferenceable(40) %this, ptr noundef nonnull align 8 dereferenceable(16) %yyctx, ptr noundef %yyarg, i32 noundef %yyargn) #6 align 2 {
entry:
  %retval = alloca i32, align 4
  %this.addr = alloca ptr, align 8
  %yyctx.addr = alloca ptr, align 8
  %yyarg.addr = alloca ptr, align 8
  %yyargn.addr = alloca i32, align 4
  %yyn = alloca i32, align 4
  store ptr %this, ptr %this.addr, align 8
  store ptr %yyctx, ptr %yyctx.addr, align 8
  store ptr %yyarg, ptr %yyarg.addr, align 8
  store i32 %yyargn, ptr %yyargn.addr, align 4
  %0 = load ptr, ptr %yyctx.addr, align 8
  %call = call noundef nonnull align 16 dereferenceable(64) ptr @_ZNK8facebook5velox4type6Parser7context9lookaheadEv(ptr noundef nonnull align 8 dereferenceable(16) %0) #3
  %call2 = call noundef zeroext i1 @_ZNK8facebook5velox4type6Parser12basic_symbolINS2_7by_kindEE5emptyEv(ptr noundef nonnull align 16 dereferenceable(64) %call) #3
  br i1 %call2, label %if.end7, label %if.then

if.then:                                          ; preds = %entry
  %1 = load ptr, ptr %yyarg.addr, align 8
  %tobool = icmp ne ptr %1, null
  br i1 %tobool, label %if.then3, label %if.end

if.then3:                                         ; preds = %if.then
  %2 = load ptr, ptr %yyctx.addr, align 8
  %call4 = call noundef i32 @_ZNK8facebook5velox4type6Parser7context5tokenEv(ptr noundef nonnull align 8 dereferenceable(16) %2) #3
  %3 = load ptr, ptr %yyarg.addr, align 8
  %arrayidx = getelementptr inbounds i32, ptr %3, i64 0
  store i32 %call4, ptr %arrayidx, align 4
  br label %if.end

if.end:                                           ; preds = %if.then3, %if.then
  %4 = load ptr, ptr %yyctx.addr, align 8
  %5 = load ptr, ptr %yyarg.addr, align 8
  %tobool5 = icmp ne ptr %5, null
  br i1 %tobool5, label %cond.true, label %cond.false

cond.true:                                        ; preds = %if.end
  %6 = load ptr, ptr %yyarg.addr, align 8
  %add.ptr = getelementptr inbounds i32, ptr %6, i64 1
  br label %cond.end

cond.false:                                       ; preds = %if.end
  %7 = load ptr, ptr %yyarg.addr, align 8
  br label %cond.end

cond.end:                                         ; preds = %cond.false, %cond.true
  %cond = phi ptr [ %add.ptr, %cond.true ], [ %7, %cond.false ]
  %8 = load i32, ptr %yyargn.addr, align 4
  %sub = sub nsw i32 %8, 1
  %call6 = call noundef i32 @_ZNK8facebook5velox4type6Parser7context15expected_tokensEPNS2_11symbol_kind16symbol_kind_typeEi(ptr noundef nonnull align 8 dereferenceable(16) %4, ptr noundef %cond, i32 noundef %sub)
  store i32 %call6, ptr %yyn, align 4
  %9 = load i32, ptr %yyn, align 4
  %add = add nsw i32 %9, 1
  store i32 %add, ptr %retval, align 4
  br label %return

if.end7:                                          ; preds = %entry
  store i32 0, ptr %retval, align 4
  br label %return

return:                                           ; preds = %if.end7, %cond.end
  %10 = load i32, ptr %retval, align 4
  ret i32 %10
}